; Function Attrs: nounwind uwtable
define ptr @l_Lean_IR_ExplicitBoxing_run(ptr noundef %0, ptr noundef %1) local_unnamed_addr #0 {
lean_nat_lt.exit:
  %2 = getelementptr i8, ptr %1, i64 8
  %.val = load i64, ptr %2, align 8, !tbaa !8
  %.mask = and i64 %.val, 9223372036854775807
  %.not = icmp eq i64 %.mask, 0
  br i1 %.not, label %lean_dec.exit36, label %lean_dec.exit32

lean_dec.exit36:                                  ; preds = %lean_nat_lt.exit
  %3 = ptrtoint ptr %1 to i64
  %4 = and i64 %3, 1
  %.not57 = icmp eq i64 %4, 0
  br i1 %.not57, label %5, label %lean_dec.exit35

5:                                                ; preds = %lean_dec.exit36
  %6 = load i32, ptr %1, align 4, !tbaa !10
  %7 = icmp sgt i32 %6, 1
  br i1 %7, label %8, label %10, !prof !13

8:                                                ; preds = %5
  %9 = add nsw i32 %6, -1
  store i32 %9, ptr %1, align 4, !tbaa !10
  br label %lean_dec.exit35

10:                                               ; preds = %5
  %.not.i38 = icmp eq i32 %6, 0
  br i1 %.not.i38, label %lean_dec.exit35, label %11

11:                                               ; preds = %10
  tail call void @lean_dec_ref_cold(ptr noundef nonnull %1) #6
  br label %lean_dec.exit35

lean_dec.exit35:                                  ; preds = %11, %10, %8, %lean_dec.exit36
  %12 = load ptr, ptr @l_Lean_IR_ExplicitBoxing_mkBoxedVersionAux___closed__1, align 8, !tbaa !4
  br label %lean_dec.exit

lean_dec.exit32:                                  ; preds = %lean_nat_lt.exit
  %13 = load ptr, ptr @l_Lean_IR_ExplicitBoxing_mkBoxedVersionAux___closed__1, align 8, !tbaa !4
  %14 = ptrtoint ptr %1 to i64
  %15 = and i64 %14, 1
  %.not55 = icmp eq i64 %15, 0
  br i1 %.not55, label %16, label %lean_inc.exit37

16:                                               ; preds = %lean_dec.exit32
  %.val.i = load i32, ptr %1, align 4, !tbaa !10
  %17 = icmp sgt i32 %.val.i, 0
  br i1 %17, label %18, label %20, !prof !13

18:                                               ; preds = %16
  %19 = add nuw i32 %.val.i, 1
  store i32 %19, ptr %1, align 4, !tbaa !10
  br label %lean_inc.exit37

20:                                               ; preds = %16
  %.not.i51 = icmp eq i32 %.val.i, 0
  br i1 %.not.i51, label %lean_inc.exit37, label %21

21:                                               ; preds = %20
  tail call void @lean_inc_ref_cold(ptr noundef nonnull %1) #6
  br label %lean_inc.exit37

lean_inc.exit37:                                  ; preds = %21, %20, %18, %lean_dec.exit32
  %22 = ptrtoint ptr %0 to i64
  %23 = and i64 %22, 1
  %.not56 = icmp eq i64 %23, 0
  br i1 %.not56, label %24, label %lean_inc.exit

24:                                               ; preds = %lean_inc.exit37
  %.val.i52 = load i32, ptr %0, align 4, !tbaa !10
  %25 = icmp sgt i32 %.val.i52, 0
  br i1 %25, label %26, label %28, !prof !13

26:                                               ; preds = %24
  %27 = add nuw i32 %.val.i52, 1
  store i32 %27, ptr %0, align 4, !tbaa !10
  br label %lean_inc.exit

28:                                               ; preds = %24
  %.not.i53 = icmp eq i32 %.val.i52, 0
  br i1 %.not.i53, label %lean_inc.exit, label %29

29:                                               ; preds = %28
  tail call void @lean_inc_ref_cold(ptr noundef nonnull %0) #6
  br label %lean_inc.exit

lean_inc.exit:                                    ; preds = %29, %28, %26, %lean_inc.exit37
  %30 = tail call ptr @l_Array_foldlMUnsafe_fold___at_Lean_IR_ExplicitBoxing_run___spec__1___at_Lean_IR_ExplicitBoxing_run___spec__2(ptr noundef %0, ptr noundef nonnull %1, ptr noundef nonnull inttoptr (i64 1 to ptr), ptr noundef nonnull %1, i64 noundef 0, i64 noundef %.mask, ptr noundef %13)
  br i1 %.not55, label %31, label %lean_dec.exit

31:                                               ; preds = %lean_inc.exit
  %32 = load i32, ptr %1, align 4, !tbaa !10
  %33 = icmp sgt i32 %32, 1
  br i1 %33, label %34, label %36, !prof !13

34:                                               ; preds = %31
  %35 = add nsw i32 %32, -1
  store i32 %35, ptr %1, align 4, !tbaa !10
  br label %lean_dec.exit

36:                                               ; preds = %31
  %.not.i46 = icmp eq i32 %32, 0
  br i1 %.not.i46, label %lean_dec.exit, label %37

37:                                               ; preds = %36
  tail call void @lean_dec_ref_cold(ptr noundef nonnull %1) #6
  br label %lean_dec.exit

lean_dec.exit:                                    ; preds = %lean_inc.exit, %34, %36, %37, %lean_dec.exit35
  %.sink = phi ptr [ %12, %lean_dec.exit35 ], [ %30, %37 ], [ %30, %36 ], [ %30, %34 ], [ %30, %lean_inc.exit ]
  %38 = tail call ptr @l_Lean_IR_ExplicitBoxing_addBoxedVersions(ptr noundef %0, ptr noundef %.sink)
  ret ptr %38
}